; Function Attrs: nounwind uwtable
define dso_local noundef i64 @cidout(ptr noundef readonly captures(none) %0) local_unnamed_addr #0 {
  %2 = getelementptr inbounds nuw i8, ptr %0, i64 32
  %3 = load i64, ptr %2, align 8
  %4 = tail call ptr @palloc(i64 noundef 16) #7
  %5 = and i64 %3, 4294967295
  %6 = tail call i32 (ptr, i64, ptr, ...) @pg_snprintf(ptr noundef %4, i64 noundef 16, ptr noundef nonnull @.str.1, i64 noundef %5) #7
  %7 = ptrtoint ptr %4 to i64
  ret i64 %7
}